target datalayout = "e-m:e-p270:32:32-p271:32:32-p272:64:64-i64:64-i128:128-f80:128-n8:16:32:64-S128"
target triple = "x86_64-pc-linux-gnu"

%struct.darktable_t = type { %struct.dt_codepath_t, i32, i32, ptr, ptr, ptr, ptr, ptr, ptr, ptr, ptr, ptr, ptr, ptr, ptr, ptr, ptr, ptr, ptr, ptr, ptr, ptr, ptr, ptr, ptr, ptr, ptr, ptr, ptr, ptr, [64 x %struct.dt_pthread_mutex_t], %struct.dt_pthread_mutex_t, %struct.dt_pthread_mutex_t, %struct.dt_pthread_mutex_t, %struct.dt_pthread_mutex_t, %struct.dt_pthread_mutex_t, ptr, ptr, ptr, ptr, ptr, ptr, ptr, ptr, ptr, ptr, ptr, ptr, ptr, %struct.dt_lua_state_t, ptr, double, ptr, i32, [47 x i32], i32, i32, ptr, ptr, %struct.dt_sys_resources_t, %struct.dt_backthumb_t, %struct.dt_gimp_t }
%struct.dt_codepath_t = type { i8, [3 x i8] }
%struct.dt_pthread_mutex_t = type { %union.pthread_mutex_t }
%union.pthread_mutex_t = type { %struct.__pthread_mutex_s }
%struct.__pthread_mutex_s = type { i32, i32, i32, i32, i32, i16, i16, %struct.__pthread_internal_list }
%struct.__pthread_internal_list = type { ptr, ptr }
%struct.dt_lua_state_t = type { i32 }
%struct.dt_sys_resources_t = type { i64, i64, ptr, ptr, i32 }
%struct.dt_backthumb_t = type { double, double, i32, i32, i32, i32 }
%struct.dt_gimp_t = type { i32, ptr, ptr, i32, i32 }
%struct.dt_lib_module_t = type { %struct.dt_action_t, ptr, ptr, ptr, ptr, ptr, ptr, ptr, ptr, ptr, ptr, ptr, ptr, ptr, ptr, ptr, ptr, ptr, ptr, ptr, ptr, ptr, ptr, ptr, ptr, ptr, ptr, ptr, ptr, ptr, ptr, [128 x i8], ptr, ptr, i32, ptr, ptr, ptr, i32 }
%struct.dt_action_t = type { i32, ptr, ptr, ptr, ptr, ptr }
%struct.dt_lib_tagging_t = type { [1024 x i8], ptr, ptr, ptr, ptr, ptr, ptr, ptr, ptr, ptr, ptr, ptr, ptr, ptr, ptr, ptr, ptr, ptr, ptr, ptr, ptr, ptr, i32, i32, i32, i32, i32, ptr, ptr, %struct.anon, i32 }
%struct.anon = type { ptr, ptr, ptr, i32, i32, i32, i32, i32 }
%struct._GdkEventKey = type { i32, ptr, i8, i32, i32, i32, i32, ptr, i16, i8, i8 }
%struct.dt_gui_gtk_t = type { ptr, %struct.dt_gui_widgets_t, %struct.dt_gui_scrollbars_t, i32, ptr, i32, [39 x %struct._GdkRGBA], i32, i32, i32, i32, i32, double, double, double, double, ptr, double, double, double, double, i32, i32, [4096 x i8], i32, i32, i32, %struct.dt_pthread_mutex_t }
%struct.dt_gui_widgets_t = type { ptr, ptr, ptr, ptr, i32, i32, i32 }
%struct.dt_gui_scrollbars_t = type { ptr, ptr, i32 }
%struct._GdkRGBA = type { double, double, double, double }

@.str.5 = private unnamed_addr constant [1 x i8] zeroinitializer, align 1
@darktable = external global %struct.darktable_t, align 8

; Function Attrs: nounwind uwtable
define internal void @_show_keyword_on_view(ptr noundef %0, ptr noundef %1, i32 noundef %2) #0 {
  %4 = alloca ptr, align 8
  %5 = alloca ptr, align 8
  %6 = alloca i32, align 4
  %7 = alloca ptr, align 8
  store ptr %0, ptr %4, align 8, !tbaa !35
  store ptr %1, ptr %5, align 8, !tbaa !49
  store i32 %2, ptr %6, align 4, !tbaa !31
  call void @llvm.lifetime.start.p0(i64 8, ptr %7) #11
  %8 = load ptr, ptr %5, align 8, !tbaa !49
  %9 = call noalias ptr @g_utf8_strdown(ptr noundef %8, i64 noundef -1)
  store ptr %9, ptr %7, align 8, !tbaa !49
  %10 = load ptr, ptr %4, align 8, !tbaa !35
  %11 = load ptr, ptr %7, align 8, !tbaa !49
  %12 = load i32, ptr %6, align 4, !tbaa !31
  call void @_show_tag_on_view(ptr noundef %10, ptr noundef %11, i32 noundef 1, i32 noundef %12)
  %13 = load ptr, ptr %7, align 8, !tbaa !49
  call void @g_free(ptr noundef %13)
  call void @llvm.lifetime.end.p0(i64 8, ptr %7) #11
  ret void
}

; Function Attrs: nounwind uwtable
define internal void @_unselect_all_in_view(ptr noundef %0) #0 {
  %2 = alloca ptr, align 8
  %3 = alloca ptr, align 8
  store ptr %0, ptr %2, align 8, !tbaa !35
  call void @llvm.lifetime.start.p0(i64 8, ptr %3) #11
  %4 = load ptr, ptr %2, align 8, !tbaa !35
  %5 = call ptr @gtk_tree_view_get_selection(ptr noundef %4)
  store ptr %5, ptr %3, align 8, !tbaa !59
  %6 = load ptr, ptr %3, align 8, !tbaa !59
  call void @gtk_tree_selection_unselect_all(ptr noundef %6)
  call void @llvm.lifetime.end.p0(i64 8, ptr %3) #11
  ret void
}

; Function Attrs: nounwind uwtable
define internal i32 @_enter_key_pressed(ptr noundef %0, ptr noundef %1, ptr noundef %2) #0 {
  %4 = alloca i32, align 4
  %5 = alloca ptr, align 8
  %6 = alloca ptr, align 8
  %7 = alloca ptr, align 8
  %8 = alloca ptr, align 8
  %9 = alloca i32, align 4
  store ptr %0, ptr %5, align 8, !tbaa !108
  store ptr %1, ptr %6, align 8, !tbaa !149
  store ptr %2, ptr %7, align 8, !tbaa !6
  call void @llvm.lifetime.start.p0(i64 8, ptr %8) #11
  %10 = load ptr, ptr %7, align 8, !tbaa !6
  %11 = getelementptr inbounds nuw %struct.dt_lib_module_t, ptr %10, i32 0, i32 30
  %12 = load ptr, ptr %11, align 8, !tbaa !11
  store ptr %12, ptr %8, align 8, !tbaa !19
  %13 = load ptr, ptr %6, align 8, !tbaa !149
  %14 = getelementptr inbounds nuw %struct._GdkEventKey, ptr %13, i32 0, i32 5
  %15 = load i32, ptr %14, align 4, !tbaa !151
  switch i32 %15, label %67 [
    i32 65293, label %16
    i32 65421, label %16
    i32 65307, label %18
    i32 65364, label %25
    i32 65433, label %25
    i32 65289, label %25
    i32 65056, label %47
    i32 65362, label %66
    i32 65431, label %66
  ]

16:                                               ; preds = %3, %3
  %17 = load ptr, ptr %7, align 8, !tbaa !6
  call void @_new_button_clicked(ptr noundef null, ptr noundef %17)
  br label %68

18:                                               ; preds = %3
  %19 = load ptr, ptr getelementptr inbounds nuw (%struct.darktable_t, ptr @darktable, i32 0, i32 14), align 8, !tbaa !158
  %20 = getelementptr inbounds nuw %struct.dt_gui_gtk_t, ptr %19, i32 0, i32 0
  %21 = load ptr, ptr %20, align 8, !tbaa !165
  %22 = call ptr @dt_ui_main_window(ptr noundef %21)
  %23 = call i64 @gtk_window_get_type() #12
  %24 = call ptr @g_type_check_instance_cast(ptr noundef %22, i64 noundef %23)
  call void @gtk_window_set_focus(ptr noundef %24, ptr noundef null)
  br label %68

25:                                               ; preds = %3, %3, %3
  %26 = load ptr, ptr %8, align 8, !tbaa !19
  %27 = getelementptr inbounds nuw %struct.dt_lib_tagging_t, ptr %26, i32 0, i32 3
  %28 = load ptr, ptr %27, align 8, !tbaa !34
  call void @_unselect_all_in_view(ptr noundef %28)
  %29 = load ptr, ptr %8, align 8, !tbaa !19
  %30 = getelementptr inbounds nuw %struct.dt_lib_tagging_t, ptr %29, i32 0, i32 0
  %31 = getelementptr inbounds [1024 x i8], ptr %30, i64 0, i64 0
  %32 = load i8, ptr %31, align 8, !tbaa !52
  %33 = icmp ne i8 %32, 0
  br i1 %33, label %34, label %41

34:                                               ; preds = %25
  %35 = load ptr, ptr %8, align 8, !tbaa !19
  %36 = getelementptr inbounds nuw %struct.dt_lib_tagging_t, ptr %35, i32 0, i32 4
  %37 = load ptr, ptr %36, align 8, !tbaa !40
  %38 = load ptr, ptr %8, align 8, !tbaa !19
  %39 = getelementptr inbounds nuw %struct.dt_lib_tagging_t, ptr %38, i32 0, i32 0
  %40 = getelementptr inbounds [1024 x i8], ptr %39, i64 0, i64 0
  call void @_show_keyword_on_view(ptr noundef %37, ptr noundef %40, i32 noundef 1)
  br label %41

41:                                               ; preds = %34, %25
  %42 = load ptr, ptr %8, align 8, !tbaa !19
  %43 = getelementptr inbounds nuw %struct.dt_lib_tagging_t, ptr %42, i32 0, i32 4
  %44 = load ptr, ptr %43, align 8, !tbaa !40
  %45 = call i64 @gtk_widget_get_type() #12
  %46 = call ptr @g_type_check_instance_cast(ptr noundef %44, i64 noundef %45)
  call void @gtk_widget_grab_focus(ptr noundef %46)
  store i32 1, ptr %4, align 4
  store i32 1, ptr %9, align 4
  br label %69

47:                                               ; preds = %3
  %48 = load ptr, ptr %8, align 8, !tbaa !19
  %49 = getelementptr inbounds nuw %struct.dt_lib_tagging_t, ptr %48, i32 0, i32 4
  %50 = load ptr, ptr %49, align 8, !tbaa !40
  call void @_unselect_all_in_view(ptr noundef %50)
  %51 = load ptr, ptr %8, align 8, !tbaa !19
  %52 = getelementptr inbounds nuw %struct.dt_lib_tagging_t, ptr %51, i32 0, i32 3
  %53 = load ptr, ptr %52, align 8, !tbaa !34
  %54 = call i32 @_select_next_user_attached_tag(i32 noundef 0, ptr noundef %53)
  %55 = icmp ne i32 %54, 0
  br i1 %55, label %56, label %65

56:                                               ; preds = %47
  %57 = load ptr, ptr %5, align 8, !tbaa !108
  %58 = call i64 @gtk_entry_get_type() #12
  %59 = call ptr @g_type_check_instance_cast(ptr noundef %57, i64 noundef %58)
  call void @gtk_entry_set_text(ptr noundef %59, ptr noundef @.str.5)
  %60 = load ptr, ptr %8, align 8, !tbaa !19
  %61 = getelementptr inbounds nuw %struct.dt_lib_tagging_t, ptr %60, i32 0, i32 3
  %62 = load ptr, ptr %61, align 8, !tbaa !34
  %63 = call i64 @gtk_widget_get_type() #12
  %64 = call ptr @g_type_check_instance_cast(ptr noundef %62, i64 noundef %63)
  call void @gtk_widget_grab_focus(ptr noundef %64)
  br label %65

65:                                               ; preds = %56, %47
  store i32 1, ptr %4, align 4
  store i32 1, ptr %9, align 4
  br label %69

66:                                               ; preds = %3, %3
  store i32 1, ptr %4, align 4
  store i32 1, ptr %9, align 4
  br label %69

67:                                               ; preds = %3
  br label %68

68:                                               ; preds = %67, %18, %16
  store i32 0, ptr %4, align 4
  store i32 1, ptr %9, align 4
  br label %69

69:                                               ; preds = %68, %66, %65, %41
  call void @llvm.lifetime.end.p0(i64 8, ptr %8) #11
  %70 = load i32, ptr %4, align 4
  ret i32 %70
}