; Function Attrs: nounwind uwtable
define internal range(i32 0, 2) i32 @_enter_key_pressed(ptr noundef %0, ptr noundef readonly captures(none) %1, ptr noundef %2) #1 {
  %4 = getelementptr inbounds nuw i8, ptr %2, i64 280
  %5 = load ptr, ptr %4, align 8, !tbaa !6
  %6 = getelementptr inbounds nuw i8, ptr %1, i64 28
  %7 = load i32, ptr %6, align 4, !tbaa !122
  switch i32 %7, label %42 [
    i32 65293, label %8
    i32 65421, label %8
    i32 65307, label %9
    i32 65364, label %15
    i32 65433, label %15
    i32 65289, label %15
    i32 65056, label %29
    i32 65362, label %43
    i32 65431, label %43
  ]

8:                                                ; preds = %3, %3
  tail call void @_new_button_clicked(ptr poison, ptr noundef nonnull %2)
  br label %42

9:                                                ; preds = %3
  %10 = load ptr, ptr getelementptr inbounds nuw (i8, ptr @darktable, i64 104), align 8, !tbaa !125
  %11 = load ptr, ptr %10, align 8, !tbaa !131
  %12 = tail call ptr @dt_ui_main_window(ptr noundef %11) #16
  %13 = tail call i64 @gtk_window_get_type() #17
  %14 = tail call ptr @g_type_check_instance_cast(ptr noundef %12, i64 noundef %13) #16
  tail call void @gtk_window_set_focus(ptr noundef %14, ptr noundef null) #16
  br label %42

15:                                               ; preds = %3, %3, %3
  %16 = getelementptr inbounds nuw i8, ptr %5, i64 1040
  %17 = load ptr, ptr %16, align 8, !tbaa !28
  %18 = tail call ptr @gtk_tree_view_get_selection(ptr noundef %17) #16
  tail call void @gtk_tree_selection_unselect_all(ptr noundef %18) #16
  %19 = load i8, ptr %5, align 8, !tbaa !40
  %.not12 = icmp eq i8 %19, 0
  br i1 %.not12, label %24, label %20

20:                                               ; preds = %15
  %21 = getelementptr inbounds nuw i8, ptr %5, i64 1048
  %22 = load ptr, ptr %21, align 8, !tbaa !27
  %23 = tail call noalias ptr @g_utf8_strdown(ptr noundef nonnull %5, i64 noundef -1) #16
  tail call fastcc void @_show_tag_on_view(ptr noundef %22, ptr noundef %23, i32 noundef 1, i32 noundef 1)
  tail call void @g_free(ptr noundef %23) #16
  br label %24

24:                                               ; preds = %20, %15
  %25 = getelementptr inbounds nuw i8, ptr %5, i64 1048
  %26 = load ptr, ptr %25, align 8, !tbaa !27
  %27 = tail call i64 @gtk_widget_get_type() #17
  %28 = tail call ptr @g_type_check_instance_cast(ptr noundef %26, i64 noundef %27) #16
  tail call void @gtk_widget_grab_focus(ptr noundef %28) #16
  br label %43

29:                                               ; preds = %3
  %30 = getelementptr inbounds nuw i8, ptr %5, i64 1048
  %31 = load ptr, ptr %30, align 8, !tbaa !27
  %32 = tail call ptr @gtk_tree_view_get_selection(ptr noundef %31) #16
  tail call void @gtk_tree_selection_unselect_all(ptr noundef %32) #16
  %33 = getelementptr inbounds nuw i8, ptr %5, i64 1040
  %34 = load ptr, ptr %33, align 8, !tbaa !28
  %35 = tail call fastcc i32 @_select_next_user_attached_tag(i32 noundef 0, ptr noundef %34)
  %.not = icmp eq i32 %35, 0
  br i1 %.not, label %43, label %36

36:                                               ; preds = %29
  %37 = tail call i64 @gtk_entry_get_type() #17
  %38 = tail call ptr @g_type_check_instance_cast(ptr noundef %0, i64 noundef %37) #16
  tail call void @gtk_entry_set_text(ptr noundef %38, ptr noundef nonnull @.str.5) #16
  %39 = load ptr, ptr %33, align 8, !tbaa !28
  %40 = tail call i64 @gtk_widget_get_type() #17
  %41 = tail call ptr @g_type_check_instance_cast(ptr noundef %39, i64 noundef %40) #16
  tail call void @gtk_widget_grab_focus(ptr noundef %41) #16
  br label %43

42:                                               ; preds = %3, %9, %8
  br label %43

43:                                               ; preds = %3, %3, %29, %36, %42, %24
  %.0 = phi i32 [ 0, %42 ], [ 1, %24 ], [ 1, %36 ], [ 1, %29 ], [ 1, %3 ], [ 1, %3 ]
  ret i32 %.0
}